target datalayout = "e-m:e-p270:32:32-p271:32:32-p272:64:64-i64:64-i128:128-f80:128-n8:16:32:64-S128"
target triple = "x86_64-pc-linux-gnu"

%struct._packet_info = type { ptr, ptr, i32, i32, %struct.nstime_t, %struct.nstime_t, %struct.nstime_t, i8, ptr, ptr, ptr, ptr, %struct._address, %struct._address, %struct._address, %struct._address, %struct._address, %struct._address, i32, ptr, i8, [3 x i8], %struct.anon, i32, i32, i32, i32, ptr, i8, ptr, ptr, i16, i16, i32, i32, i16, i32, i32, ptr, ptr, ptr, i8, i8, i16, i16, i16, i32, i16, i16, ptr, ptr, ptr, ptr, ptr, i32, i32 }
%struct.nstime_t = type { i64, i32 }
%struct._address = type { i32, i32, ptr, ptr }
%struct.anon = type { i8, [3 x i8] }

@hf_batadv_icmp_rr_pointer = internal global i32 0, align 4
@hf_batadv_icmp_rr_ether = internal global i32 0, align 4
@ett_batadv_icmp_rr = internal global i32 0, align 4
@.str.305 = private unnamed_addr constant [8 x i8] c"ICMP RR\00", align 1
@.str.306 = private unnamed_addr constant [5 x i8] c"%s%s\00", align 1
@.str.307 = private unnamed_addr constant [2 x i8] c"-\00", align 1
@.str.308 = private unnamed_addr constant [14 x i8] c" <- (current)\00", align 1
@.str.309 = private unnamed_addr constant [1 x i8] zeroinitializer, align 1

; Function Attrs: null_pointer_is_valid sspstrong uwtable
define internal void @dissect_batadv_icmp_rr(ptr noundef %0, ptr noundef %1, ptr noundef %2, i32 noundef %3) #0 {
  %5 = alloca ptr, align 8
  %6 = alloca ptr, align 8
  %7 = alloca ptr, align 8
  %8 = alloca i32, align 4
  %9 = alloca ptr, align 8
  %10 = alloca i32, align 4
  %11 = alloca i32, align 4
  %12 = alloca i32, align 4
  store ptr %0, ptr %5, align 8
  store ptr %1, ptr %6, align 8
  store ptr %2, ptr %7, align 8
  store i32 %3, ptr %8, align 4
  call void @llvm.lifetime.start.p0(i64 8, ptr %9) #6
  call void @llvm.lifetime.start.p0(i64 4, ptr %10) #6
  call void @llvm.lifetime.start.p0(i64 4, ptr %11) #6
  %13 = load ptr, ptr %7, align 8
  %14 = load i32, ptr %8, align 4
  %15 = call zeroext i8 @tvb_get_uint8(ptr noundef %13, i32 noundef %14)
  %16 = zext i8 %15 to i32
  store i32 %16, ptr %10, align 4
  %17 = load i32, ptr %10, align 4
  %18 = icmp slt i32 %17, 1
  br i1 %18, label %22, label %19

19:                                               ; preds = %4
  %20 = load i32, ptr %10, align 4
  %21 = icmp sgt i32 %20, 16
  br i1 %21, label %22, label %23

22:                                               ; preds = %19, %4
  store i32 1, ptr %12, align 4
  br label %73

23:                                               ; preds = %19
  %24 = load ptr, ptr %6, align 8
  %25 = load ptr, ptr %7, align 8
  %26 = load i32, ptr %8, align 4
  %27 = load i32, ptr @ett_batadv_icmp_rr, align 4
  %28 = call ptr @proto_tree_add_subtree(ptr noundef %24, ptr noundef %25, i32 noundef %26, i32 noundef 97, i32 noundef %27, ptr noundef null, ptr noundef @.str.305)
  store ptr %28, ptr %9, align 8
  %29 = load ptr, ptr %9, align 8
  %30 = load i32, ptr @hf_batadv_icmp_rr_pointer, align 4
  %31 = load ptr, ptr %7, align 8
  %32 = load i32, ptr %8, align 4
  %33 = call ptr @proto_tree_add_item(ptr noundef %29, i32 noundef %30, ptr noundef %31, i32 noundef %32, i32 noundef 1, i32 noundef 0)
  %34 = load i32, ptr %10, align 4
  %35 = add i32 %34, -1
  store i32 %35, ptr %10, align 4
  %36 = load i32, ptr %8, align 4
  %37 = add i32 %36, 1
  store i32 %37, ptr %8, align 4
  store i32 0, ptr %11, align 4
  br label %38

38:                                               ; preds = %69, %23
  %39 = load i32, ptr %11, align 4
  %40 = icmp slt i32 %39, 16
  br i1 %40, label %41, label %72

41:                                               ; preds = %38
  %42 = load ptr, ptr %9, align 8
  %43 = load i32, ptr @hf_batadv_icmp_rr_ether, align 4
  %44 = load ptr, ptr %7, align 8
  %45 = load i32, ptr %8, align 4
  %46 = load ptr, ptr %7, align 8
  %47 = load i32, ptr %8, align 4
  %48 = call ptr @tvb_get_ptr(ptr noundef %46, i32 noundef %47, i32 noundef 6)
  %49 = load i32, ptr %11, align 4
  %50 = load i32, ptr %10, align 4
  %51 = icmp sgt i32 %49, %50
  br i1 %51, label %52, label %53

52:                                               ; preds = %41
  br label %60

53:                                               ; preds = %41
  %54 = load ptr, ptr %5, align 8
  %55 = getelementptr inbounds nuw %struct._packet_info, ptr %54, i32 0, i32 51
  %56 = load ptr, ptr %55, align 8
  %57 = load ptr, ptr %7, align 8
  %58 = load i32, ptr %8, align 4
  %59 = call ptr @tvb_address_to_str(ptr noundef %56, ptr noundef %57, i32 noundef 1, i32 noundef %58)
  br label %60

60:                                               ; preds = %53, %52
  %61 = phi ptr [ @.str.307, %52 ], [ %59, %53 ]
  %62 = load i32, ptr %11, align 4
  %63 = load i32, ptr %10, align 4
  %64 = icmp eq i32 %62, %63
  %65 = select i1 %64, ptr @.str.308, ptr @.str.309
  %66 = call ptr (ptr, i32, ptr, i32, i32, ptr, ptr, ...) @proto_tree_add_ether_format(ptr noundef %42, i32 noundef %43, ptr noundef %44, i32 noundef %45, i32 noundef 6, ptr noundef %48, ptr noundef @.str.306, ptr noundef %61, ptr noundef %65)
  %67 = load i32, ptr %8, align 4
  %68 = add i32 %67, 6
  store i32 %68, ptr %8, align 4
  br label %69

69:                                               ; preds = %60
  %70 = load i32, ptr %11, align 4
  %71 = add i32 %70, 1
  store i32 %71, ptr %11, align 4
  br label %38, !llvm.loop !21

72:                                               ; preds = %38
  store i32 0, ptr %12, align 4
  br label %73

73:                                               ; preds = %72, %22
  call void @llvm.lifetime.end.p0(i64 4, ptr %11) #6
  call void @llvm.lifetime.end.p0(i64 4, ptr %10) #6
  call void @llvm.lifetime.end.p0(i64 8, ptr %9) #6
  %74 = load i32, ptr %12, align 4
  switch i32 %74, label %76 [
    i32 0, label %75
    i32 1, label %75
  ]

75:                                               ; preds = %73, %73
  ret void

76:                                               ; preds = %73
  unreachable
}