; Function Attrs: null_pointer_is_valid sspstrong uwtable
define internal fastcc void @dissect_batadv_icmp_rr(ptr noundef readonly captures(none) %0, ptr noundef %1, ptr noundef %2, i32 noundef range(i32 19, 21) %3) unnamed_addr #0 {
  %5 = tail call zeroext i8 @tvb_get_uint8(ptr noundef %2, i32 noundef %3)
  %6 = add i8 %5, -17
  %or.cond = icmp ult i8 %6, -16
  br i1 %or.cond, label %.loopexit, label %7

7:                                                ; preds = %4
  %8 = zext nneg i8 %5 to i32
  %9 = load i32, ptr @ett_batadv_icmp_rr, align 4
  %10 = tail call ptr @proto_tree_add_subtree(ptr noundef %1, ptr noundef %2, i32 noundef %3, i32 noundef 97, i32 noundef %9, ptr noundef null, ptr noundef nonnull @.str.305)
  %11 = load i32, ptr @hf_batadv_icmp_rr_pointer, align 4
  %12 = tail call ptr @proto_tree_add_item(ptr noundef %10, i32 noundef %11, ptr noundef %2, i32 noundef %3, i32 noundef 1, i32 noundef 0)
  %13 = add nsw i32 %8, -1
  %14 = add nuw nsw i32 %3, 1
  %15 = getelementptr inbounds nuw i8, ptr %0, i64 408
  br label %16

16:                                               ; preds = %7, %22
  %.030 = phi i32 [ 0, %7 ], [ %28, %22 ]
  %.02729 = phi i32 [ %14, %7 ], [ %27, %22 ]
  %17 = load i32, ptr @hf_batadv_icmp_rr_ether, align 4
  %18 = tail call ptr @tvb_get_ptr(ptr noundef %2, i32 noundef %.02729, i32 noundef 6)
  %.not = icmp samesign ult i32 %.030, %8
  br i1 %.not, label %19, label %22

19:                                               ; preds = %16
  %20 = load ptr, ptr %15, align 8
  %21 = tail call ptr @tvb_address_to_str(ptr noundef %20, ptr noundef %2, i32 noundef 1, i32 noundef %.02729)
  br label %22

22:                                               ; preds = %16, %19
  %23 = phi ptr [ %21, %19 ], [ @.str.307, %16 ]
  %24 = icmp eq i32 %.030, %13
  %25 = select i1 %24, ptr @.str.308, ptr @.str.309
  %26 = tail call ptr (ptr, i32, ptr, i32, i32, ptr, ptr, ...) @proto_tree_add_ether_format(ptr noundef %10, i32 noundef %17, ptr noundef %2, i32 noundef %.02729, i32 noundef 6, ptr noundef %18, ptr noundef nonnull @.str.306, ptr noundef %23, ptr noundef nonnull %25)
  %27 = add nuw nsw i32 %.02729, 6
  %28 = add nuw nsw i32 %.030, 1
  %exitcond.not = icmp eq i32 %28, 16
  br i1 %exitcond.not, label %.loopexit, label %16, !llvm.loop !28

.loopexit:                                        ; preds = %22, %4
  ret void
}